target datalayout = "e-m:e-p270:32:32-p271:32:32-p272:64:64-i64:64-i128:128-f80:128-n8:16:32:64-S128"
target triple = "x86_64-pc-linux-gnu"

@current_state = internal global i32 0, align 4
@rb_eRuntimeError = external global i64, align 8
@.str = private unnamed_addr constant [39 x i8] c"coverage measurement is not set up yet\00", align 1
@.str.1 = private unnamed_addr constant [40 x i8] c"coverage measurement is already running\00", align 1

; Function Attrs: nounwind sspstrong uwtable
define i64 @rb_coverage_resume(i64 noundef %0) #0 {
  %2 = alloca i64, align 8
  store i64 %0, ptr %2, align 8, !tbaa !6
  %3 = load i32, ptr @current_state, align 4, !tbaa !10
  %4 = icmp eq i32 %3, 0
  br i1 %4, label %5, label %7

5:                                                ; preds = %1
  %6 = load i64, ptr @rb_eRuntimeError, align 8, !tbaa !6
  call void (i64, ptr, ...) @rb_raise(i64 noundef %6, ptr noundef @.str) #15
  unreachable

7:                                                ; preds = %1
  %8 = load i32, ptr @current_state, align 4, !tbaa !10
  %9 = icmp eq i32 %8, 2
  br i1 %9, label %10, label %12

10:                                               ; preds = %7
  %11 = load i64, ptr @rb_eRuntimeError, align 8, !tbaa !6
  call void (i64, ptr, ...) @rb_raise(i64 noundef %11, ptr noundef @.str.1) #15
  unreachable

12:                                               ; preds = %7
  call void @rb_resume_coverages()
  store i32 2, ptr @current_state, align 4, !tbaa !10
  ret i64 4
}

; Function Attrs: nounwind sspstrong uwtable
define internal i64 @rb_coverage_start(i32 noundef %0, ptr noundef %1, i64 noundef %2) #0 {
  %4 = alloca i32, align 4
  %5 = alloca ptr, align 8
  %6 = alloca i64, align 8
  store i32 %0, ptr %4, align 4, !tbaa !10
  store ptr %1, ptr %5, align 8, !tbaa !12
  store i64 %2, ptr %6, align 8, !tbaa !6
  %7 = load i32, ptr %4, align 4, !tbaa !10
  %8 = load ptr, ptr %5, align 8, !tbaa !12
  %9 = load i64, ptr %6, align 8, !tbaa !6
  %10 = call i64 @rb_coverage_setup(i32 noundef %7, ptr noundef %8, i64 noundef %9)
  %11 = load i64, ptr %6, align 8, !tbaa !6
  %12 = call i64 @rb_coverage_resume(i64 noundef %11)
  ret i64 4
}