; Function Attrs: nounwind sspstrong uwtable
define internal noundef i64 @rb_coverage_start(i32 noundef %0, ptr noundef readonly captures(none) %1, i64 %2) #0 {
  %4 = tail call i64 @rb_coverage_setup(i32 noundef %0, ptr noundef %1, i64 poison)
  %5 = load i32, ptr @current_state, align 4, !tbaa !6
  switch i32 %5, label %rb_coverage_resume.exit [
    i32 0, label %6
    i32 2, label %8
  ]

6:                                                ; preds = %3
  %7 = load i64, ptr @rb_eRuntimeError, align 8, !tbaa !10
  tail call void (i64, ptr, ...) @rb_raise(i64 noundef %7, ptr noundef nonnull @.str) #8
  unreachable

8:                                                ; preds = %3
  %9 = load i64, ptr @rb_eRuntimeError, align 8, !tbaa !10
  tail call void (i64, ptr, ...) @rb_raise(i64 noundef %9, ptr noundef nonnull @.str.1) #8
  unreachable

rb_coverage_resume.exit:                          ; preds = %3
  tail call void @rb_resume_coverages() #9
  store i32 2, ptr @current_state, align 4, !tbaa !6
  ret i64 4
}